; Function Attrs: inlinehint mustprogress nounwind uwtable
define internal fastcc void @_ZN5boost9unit_test12_GLOBAL__N_130unit_test_log_data_helper_implD2Ev(ptr nocapture noundef nonnull readonly align 8 dereferenceable(49) %0) unnamed_addr #12 align 2 personality ptr @__gxx_personality_v0 {
  %2 = getelementptr inbounds nuw i8, ptr %0, i64 40
  %3 = load ptr, ptr %2, align 8, !tbaa !100
  %.not.i.i = icmp eq ptr %3, null
  br i1 %.not.i.i, label %_ZN5boost10shared_ptrINS_9unit_test23unit_test_log_formatterEED2Ev.exit, label %4

4:                                                ; preds = %1
  %5 = getelementptr inbounds nuw i8, ptr %3, i64 8
  %6 = atomicrmw sub ptr %5, i32 1 acq_rel, align 4
  %7 = icmp eq i32 %6, 1
  br i1 %7, label %8, label %_ZN5boost10shared_ptrINS_9unit_test23unit_test_log_formatterEED2Ev.exit

8:                                                ; preds = %4
  %9 = load ptr, ptr %3, align 8, !tbaa !33
  %10 = getelementptr inbounds i8, ptr %9, i64 16
  %11 = load ptr, ptr %10, align 8
  invoke void %11(ptr noundef nonnull align 8 dereferenceable(16) %3)
          to label %.noexc.i.i unwind label %19

.noexc.i.i:                                       ; preds = %8
  %12 = getelementptr inbounds nuw i8, ptr %3, i64 12
  %13 = atomicrmw sub ptr %12, i32 1 acq_rel, align 4
  %14 = icmp eq i32 %13, 1
  br i1 %14, label %15, label %_ZN5boost10shared_ptrINS_9unit_test23unit_test_log_formatterEED2Ev.exit

15:                                               ; preds = %.noexc.i.i
  %16 = load ptr, ptr %3, align 8, !tbaa !33
  %17 = getelementptr inbounds i8, ptr %16, i64 24
  %18 = load ptr, ptr %17, align 8
  invoke void %18(ptr noundef nonnull align 8 dereferenceable(16) %3)
          to label %_ZN5boost10shared_ptrINS_9unit_test23unit_test_log_formatterEED2Ev.exit unwind label %19

19:                                               ; preds = %15, %8
  %20 = landingpad { ptr, i32 }
          catch ptr null
  %21 = extractvalue { ptr, i32 } %20, 0
  tail call void @__clang_call_terminate(ptr %21) #28
  unreachable

_ZN5boost10shared_ptrINS_9unit_test23unit_test_log_formatterEED2Ev.exit: ; preds = %1, %4, %.noexc.i.i, %15
  %22 = getelementptr inbounds nuw i8, ptr %0, i64 24
  %23 = load ptr, ptr %22, align 8, !tbaa !100
  %.not.i.i1 = icmp eq ptr %23, null
  br i1 %.not.i.i1, label %_ZN5boost10shared_ptrINS_2io18ios_base_all_saverEED2Ev.exit, label %24

24:                                               ; preds = %_ZN5boost10shared_ptrINS_9unit_test23unit_test_log_formatterEED2Ev.exit
  %25 = getelementptr inbounds nuw i8, ptr %23, i64 8
  %26 = atomicrmw sub ptr %25, i32 1 acq_rel, align 4
  %27 = icmp eq i32 %26, 1
  br i1 %27, label %28, label %_ZN5boost10shared_ptrINS_2io18ios_base_all_saverEED2Ev.exit

28:                                               ; preds = %24
  %29 = load ptr, ptr %23, align 8, !tbaa !33
  %30 = getelementptr inbounds i8, ptr %29, i64 16
  %31 = load ptr, ptr %30, align 8
  invoke void %31(ptr noundef nonnull align 8 dereferenceable(16) %23)
          to label %.noexc.i.i2 unwind label %39

.noexc.i.i2:                                      ; preds = %28
  %32 = getelementptr inbounds nuw i8, ptr %23, i64 12
  %33 = atomicrmw sub ptr %32, i32 1 acq_rel, align 4
  %34 = icmp eq i32 %33, 1
  br i1 %34, label %35, label %_ZN5boost10shared_ptrINS_2io18ios_base_all_saverEED2Ev.exit

35:                                               ; preds = %.noexc.i.i2
  %36 = load ptr, ptr %23, align 8, !tbaa !33
  %37 = getelementptr inbounds i8, ptr %36, i64 24
  %38 = load ptr, ptr %37, align 8
  invoke void %38(ptr noundef nonnull align 8 dereferenceable(16) %23)
          to label %_ZN5boost10shared_ptrINS_2io18ios_base_all_saverEED2Ev.exit unwind label %39

39:                                               ; preds = %35, %28
  %40 = landingpad { ptr, i32 }
          catch ptr null
  %41 = extractvalue { ptr, i32 } %40, 0
  tail call void @__clang_call_terminate(ptr %41) #28
  unreachable

_ZN5boost10shared_ptrINS_2io18ios_base_all_saverEED2Ev.exit: ; preds = %_ZN5boost10shared_ptrINS_9unit_test23unit_test_log_formatterEED2Ev.exit, %24, %.noexc.i.i2, %35
  ret void
}